; ModuleID = '27/770.cpp'
source_filename = "27/770.cpp"
target datalayout = "e-m:e-p270:32:32-p271:32:32-p272:64:64-i64:64-f80:128-n8:16:32:64-S128"
target triple = "x86_64-pc-linux-gnu"

%"class.std::ios_base::Init" = type { i8 }
%"class.std::basic_istream" = type { i32 (...)**, i64, %"class.std::basic_ios" }
%"class.std::basic_ios" = type { %"class.std::ios_base", %"class.std::basic_ostream"*, i8, i8, %"class.std::basic_streambuf"*, %"class.std::ctype"*, %"class.std::num_put"*, %"class.std::num_get"* }
%"class.std::ios_base" = type { i32 (...)**, i64, i64, i32, i32, i32, %"struct.std::ios_base::_Callback_list"*, %"struct.std::ios_base::_Words", [8 x %"struct.std::ios_base::_Words"], i32, %"struct.std::ios_base::_Words"*, %"class.std::locale" }
%"struct.std::ios_base::_Callback_list" = type { %"struct.std::ios_base::_Callback_list"*, void (i32, %"class.std::ios_base"*, i32)*, i32, i32 }
%"struct.std::ios_base::_Words" = type { i8*, i64 }
%"class.std::locale" = type { %"class.std::locale::_Impl"* }
%"class.std::locale::_Impl" = type { i32, %"class.std::locale::facet"**, i64, %"class.std::locale::facet"**, i8** }
%"class.std::locale::facet" = type <{ i32 (...)**, i32, [4 x i8] }>
%"class.std::basic_ostream" = type { i32 (...)**, %"class.std::basic_ios" }
%"class.std::basic_streambuf" = type { i32 (...)**, i8*, i8*, i8*, i8*, i8*, i8*, %"class.std::locale" }
%"class.std::ctype" = type <{ %"class.std::locale::facet.base", [4 x i8], %struct.__locale_struct*, i8, [7 x i8], i32*, i32*, i16*, i8, [256 x i8], [256 x i8], i8, [6 x i8] }>
%"class.std::locale::facet.base" = type <{ i32 (...)**, i32 }>
%struct.__locale_struct = type { [13 x %struct.__locale_data*], i16*, i32*, i32*, [13 x i8*] }
%struct.__locale_data = type opaque
%"class.std::num_put" = type { %"class.std::locale::facet.base", [4 x i8] }
%"class.std::num_get" = type { %"class.std::locale::facet.base", [4 x i8] }

@_ZStL8__ioinit = internal global %"class.std::ios_base::Init" zeroinitializer, align 1
@__dso_handle = external hidden global i8
@_ZSt3cin = external dso_local global %"class.std::basic_istream", align 8
@.str = private unnamed_addr constant [17 x i8] c"x1=%.5f;x2=%.5f\0A\00", align 1
@.str.1 = private unnamed_addr constant [29 x i8] c"x1=%.5f+%.5fi;x2=%.5f-%.5fi\0A\00", align 1
@.str.2 = private unnamed_addr constant [12 x i8] c"x1=x2=%.5f\0A\00", align 1
@llvm.global_ctors = appending global [1 x { i32, void ()*, i8* }] [{ i32, void ()*, i8* } { i32 65535, void ()* @_GLOBAL__sub_I_770.cpp, i8* null }]

; Function Attrs: noinline uwtable
define internal void @__cxx_global_var_init() #0 section ".text.startup" {
  call void @_ZNSt8ios_base4InitC1Ev(%"class.std::ios_base::Init"* @_ZStL8__ioinit)
  %1 = call i32 @__cxa_atexit(void (i8*)* bitcast (void (%"class.std::ios_base::Init"*)* @_ZNSt8ios_base4InitD1Ev to void (i8*)*), i8* getelementptr inbounds (%"class.std::ios_base::Init", %"class.std::ios_base::Init"* @_ZStL8__ioinit, i32 0, i32 0), i8* @__dso_handle) #3
  ret void
}

declare dso_local void @_ZNSt8ios_base4InitC1Ev(%"class.std::ios_base::Init"*) unnamed_addr #1

; Function Attrs: nounwind
declare dso_local void @_ZNSt8ios_base4InitD1Ev(%"class.std::ios_base::Init"*) unnamed_addr #2

; Function Attrs: nounwind
declare dso_local i32 @__cxa_atexit(void (i8*)*, i8*, i8*) #3

; Function Attrs: noinline norecurse uwtable
define dso_local i32 @main() #4 {
  %1 = alloca i32, align 4
  %2 = alloca i32, align 4
  %3 = alloca double, align 8
  %4 = alloca double, align 8
  %5 = alloca double, align 8
  %6 = alloca double, align 8
  %7 = alloca double, align 8
  store i32 0, i32* %1, align 4
  %8 = call dereferenceable(280) %"class.std::basic_istream"* @_ZNSirsERi(%"class.std::basic_istream"* @_ZSt3cin, i32* dereferenceable(4) %2)
  br label %9

9:                                                ; preds = %96, %0
  %10 = load i32, i32* %2, align 4
  %11 = add nsw i32 %10, -1
  store i32 %11, i32* %2, align 4
  %12 = icmp ne i32 %10, 0
  br i1 %12, label %13, label %97

13:                                               ; preds = %9
  %14 = call dereferenceable(280) %"class.std::basic_istream"* @_ZNSirsERd(%"class.std::basic_istream"* @_ZSt3cin, double* dereferenceable(8) %3)
  %15 = call dereferenceable(280) %"class.std::basic_istream"* @_ZNSirsERd(%"class.std::basic_istream"* %14, double* dereferenceable(8) %4)
  %16 = call dereferenceable(280) %"class.std::basic_istream"* @_ZNSirsERd(%"class.std::basic_istream"* %15, double* dereferenceable(8) %5)
  %17 = load double, double* %4, align 8
  %18 = load double, double* %4, align 8
  %19 = fmul double %17, %18
  %20 = load double, double* %3, align 8
  %21 = fmul double 4.000000e+00, %20
  %22 = load double, double* %5, align 8
  %23 = fmul double %21, %22
  %24 = fsub double %19, %23
  %25 = fcmp ogt double %24, 0.000000e+00
  br i1 %25, label %26, label %51

26:                                               ; preds = %13
  %27 = load double, double* %4, align 8
  %28 = fsub double 0.000000e+00, %27
  %29 = load double, double* %3, align 8
  %30 = fmul double 2.000000e+00, %29
  %31 = fdiv double %28, %30
  store double %31, double* %6, align 8
  %32 = load double, double* %4, align 8
  %33 = load double, double* %4, align 8
  %34 = fmul double %32, %33
  %35 = load double, double* %3, align 8
  %36 = fmul double 4.000000e+00, %35
  %37 = load double, double* %5, align 8
  %38 = fmul double %36, %37
  %39 = fsub double %34, %38
  %40 = call double @sqrt(double %39) #3
  %41 = load double, double* %3, align 8
  %42 = fmul double 2.000000e+00, %41
  %43 = fdiv double %40, %42
  store double %43, double* %7, align 8
  %44 = load double, double* %6, align 8
  %45 = load double, double* %7, align 8
  %46 = fadd double %44, %45
  %47 = load double, double* %6, align 8
  %48 = load double, double* %7, align 8
  %49 = fsub double %47, %48
  %50 = call i32 (i8*, ...) @printf(i8* getelementptr inbounds ([17 x i8], [17 x i8]* @.str, i64 0, i64 0), double %46, double %49)
  br label %96

51:                                               ; preds = %13
  %52 = load double, double* %4, align 8
  %53 = load double, double* %4, align 8
  %54 = fmul double %52, %53
  %55 = load double, double* %3, align 8
  %56 = fmul double 4.000000e+00, %55
  %57 = load double, double* %5, align 8
  %58 = fmul double %56, %57
  %59 = fsub double %54, %58
  %60 = fcmp olt double %59, 0.000000e+00
  br i1 %60, label %61, label %88

61:                                               ; preds = %51
  %62 = load double, double* %4, align 8
  %63 = fsub double 0.000000e+00, %62
  %64 = load double, double* %3, align 8
  %65 = fmul double 2.000000e+00, %64
  %66 = fdiv double %63, %65
  store double %66, double* %6, align 8
  %67 = load double, double* %6, align 8
  %68 = fcmp oeq double %67, 0.000000e+00
  br i1 %68, label %69, label %70

69:                                               ; preds = %61
  store double 0.000000e+00, double* %6, align 8
  br label %70

70:                                               ; preds = %69, %61
  %71 = load double, double* %3, align 8
  %72 = fmul double 4.000000e+00, %71
  %73 = load double, double* %5, align 8
  %74 = fmul double %72, %73
  %75 = load double, double* %4, align 8
  %76 = load double, double* %4, align 8
  %77 = fmul double %75, %76
  %78 = fsub double %74, %77
  %79 = call double @sqrt(double %78) #3
  %80 = load double, double* %3, align 8
  %81 = fmul double 2.000000e+00, %80
  %82 = fdiv double %79, %81
  store double %82, double* %7, align 8
  %83 = load double, double* %6, align 8
  %84 = load double, double* %7, align 8
  %85 = load double, double* %6, align 8
  %86 = load double, double* %7, align 8
  %87 = call i32 (i8*, ...) @printf(i8* getelementptr inbounds ([29 x i8], [29 x i8]* @.str.1, i64 0, i64 0), double %83, double %84, double %85, double %86)
  br label %95

88:                                               ; preds = %51
  %89 = load double, double* %4, align 8
  %90 = fsub double 0.000000e+00, %89
  %91 = load double, double* %3, align 8
  %92 = fmul double 2.000000e+00, %91
  %93 = fdiv double %90, %92
  %94 = call i32 (i8*, ...) @printf(i8* getelementptr inbounds ([12 x i8], [12 x i8]* @.str.2, i64 0, i64 0), double %93)
  br label %95

95:                                               ; preds = %88, %70
  br label %96

96:                                               ; preds = %95, %26
  br label %9

97:                                               ; preds = %9
  ret i32 0
}

declare dso_local dereferenceable(280) %"class.std::basic_istream"* @_ZNSirsERi(%"class.std::basic_istream"*, i32* dereferenceable(4)) #1

declare dso_local dereferenceable(280) %"class.std::basic_istream"* @_ZNSirsERd(%"class.std::basic_istream"*, double* dereferenceable(8)) #1

; Function Attrs: nounwind
declare dso_local double @sqrt(double) #2

declare dso_local i32 @printf(i8*, ...) #1

; Function Attrs: noinline uwtable
define internal void @_GLOBAL__sub_I_770.cpp() #0 section ".text.startup" {
  call void @__cxx_global_var_init()
  ret void
}


!llvm.module.flags = !{!0}
!llvm.ident = !{!1}

!0 = !{i32 1, !"wchar_size", i32 4}
!1 = !{!"clang version 10.0.0-4ubuntu1 "}
